; Function Attrs: mustprogress nofree norecurse nosync nounwind willreturn memory(readwrite, inaccessiblemem: none) uwtable
define internal noundef zeroext i1 @"_ZNSt17_Function_handlerIFbiEZN8LightGBM13DatasetLoader20LoadTextDataToMemoryB5cxx11EPKcRKNS1_8MetadataEiiPiPSt6vectorIiSaIiEEE3$_0E9_M_invokeERKSt9_Any_dataOi"(ptr noundef nonnull readonly align 8 captures(none) dereferenceable(16) %0, ptr nonnull readonly align 4 captures(none) %1) #25 align 2 {
  %3 = load ptr, ptr %0, align 8, !tbaa !685
  %4 = getelementptr inbounds nuw i8, ptr %3, i64 8
  %5 = getelementptr inbounds nuw i8, ptr %0, i64 12
  %6 = load i32, ptr %5, align 4, !tbaa !687
  %7 = load i32, ptr %4, align 4, !tbaa !48
  %8 = mul i32 %7, 214013
  %9 = add i32 %8, 2531011
  store i32 %9, ptr %4, align 4, !tbaa !48
  %10 = lshr i32 %9, 16
  %11 = and i32 %10, 32767
  %12 = srem i32 %11, %6
  %13 = getelementptr inbounds nuw i8, ptr %0, i64 8
  %14 = load i32, ptr %13, align 8, !tbaa !688
  %15 = icmp eq i32 %12, %14
  ret i1 %15
}